target datalayout = "e-m:e-p270:32:32-p271:32:32-p272:64:64-i64:64-i128:128-f80:128-n8:16:32:64-S128"
target triple = "x86_64-pc-linux-gnu"

%struct.TAKDSPContext = type { ptr, ptr, ptr, ptr }

; Function Attrs: cold nounwind optsize uwtable
define void @ff_takdsp_init(ptr noundef %0) #0 {
  %2 = alloca ptr, align 8
  store ptr %0, ptr %2, align 8, !tbaa !4
  %3 = load ptr, ptr %2, align 8, !tbaa !4
  %4 = getelementptr inbounds nuw %struct.TAKDSPContext, ptr %3, i32 0, i32 0
  store ptr @decorrelate_ls, ptr %4, align 8, !tbaa !9
  %5 = load ptr, ptr %2, align 8, !tbaa !4
  %6 = getelementptr inbounds nuw %struct.TAKDSPContext, ptr %5, i32 0, i32 1
  store ptr @decorrelate_sr, ptr %6, align 8, !tbaa !11
  %7 = load ptr, ptr %2, align 8, !tbaa !4
  %8 = getelementptr inbounds nuw %struct.TAKDSPContext, ptr %7, i32 0, i32 2
  store ptr @decorrelate_sm, ptr %8, align 8, !tbaa !12
  %9 = load ptr, ptr %2, align 8, !tbaa !4
  %10 = getelementptr inbounds nuw %struct.TAKDSPContext, ptr %9, i32 0, i32 3
  store ptr @decorrelate_sf, ptr %10, align 8, !tbaa !13
  ret void
}

; Function Attrs: nounwind uwtable
define internal void @decorrelate_ls(ptr noundef %0, ptr noundef %1, i32 noundef %2) #1 {
  %4 = alloca ptr, align 8
  %5 = alloca ptr, align 8
  %6 = alloca i32, align 4
  %7 = alloca i32, align 4
  %8 = alloca i32, align 4
  %9 = alloca i32, align 4
  store ptr %0, ptr %4, align 8, !tbaa !14
  store ptr %1, ptr %5, align 8, !tbaa !14
  store i32 %2, ptr %6, align 4, !tbaa !16
  call void @llvm.lifetime.start.p0(i64 4, ptr %7) #3
  store i32 0, ptr %7, align 4, !tbaa !16
  br label %10

10:                                               ; preds = %32, %3
  %11 = load i32, ptr %7, align 4, !tbaa !16
  %12 = load i32, ptr %6, align 4, !tbaa !16
  %13 = icmp slt i32 %11, %12
  br i1 %13, label %14, label %35

14:                                               ; preds = %10
  call void @llvm.lifetime.start.p0(i64 4, ptr %8) #3
  %15 = load ptr, ptr %4, align 8, !tbaa !14
  %16 = load i32, ptr %7, align 4, !tbaa !16
  %17 = sext i32 %16 to i64
  %18 = getelementptr inbounds i32, ptr %15, i64 %17
  %19 = load i32, ptr %18, align 4, !tbaa !16
  store i32 %19, ptr %8, align 4, !tbaa !16
  call void @llvm.lifetime.start.p0(i64 4, ptr %9) #3
  %20 = load ptr, ptr %5, align 8, !tbaa !14
  %21 = load i32, ptr %7, align 4, !tbaa !16
  %22 = sext i32 %21 to i64
  %23 = getelementptr inbounds i32, ptr %20, i64 %22
  %24 = load i32, ptr %23, align 4, !tbaa !16
  store i32 %24, ptr %9, align 4, !tbaa !16
  %25 = load i32, ptr %8, align 4, !tbaa !16
  %26 = load i32, ptr %9, align 4, !tbaa !16
  %27 = add i32 %25, %26
  %28 = load ptr, ptr %5, align 8, !tbaa !14
  %29 = load i32, ptr %7, align 4, !tbaa !16
  %30 = sext i32 %29 to i64
  %31 = getelementptr inbounds i32, ptr %28, i64 %30
  store i32 %27, ptr %31, align 4, !tbaa !16
  call void @llvm.lifetime.end.p0(i64 4, ptr %9) #3
  call void @llvm.lifetime.end.p0(i64 4, ptr %8) #3
  br label %32

32:                                               ; preds = %14
  %33 = load i32, ptr %7, align 4, !tbaa !16
  %34 = add nsw i32 %33, 1
  store i32 %34, ptr %7, align 4, !tbaa !16
  br label %10, !llvm.loop !18

35:                                               ; preds = %10
  call void @llvm.lifetime.end.p0(i64 4, ptr %7) #3
  ret void
}

; Function Attrs: nounwind uwtable
define internal void @decorrelate_sr(ptr noundef %0, ptr noundef %1, i32 noundef %2) #1 {
  %4 = alloca ptr, align 8
  %5 = alloca ptr, align 8
  %6 = alloca i32, align 4
  %7 = alloca i32, align 4
  %8 = alloca i32, align 4
  %9 = alloca i32, align 4
  store ptr %0, ptr %4, align 8, !tbaa !14
  store ptr %1, ptr %5, align 8, !tbaa !14
  store i32 %2, ptr %6, align 4, !tbaa !16
  call void @llvm.lifetime.start.p0(i64 4, ptr %7) #3
  store i32 0, ptr %7, align 4, !tbaa !16
  br label %10

10:                                               ; preds = %32, %3
  %11 = load i32, ptr %7, align 4, !tbaa !16
  %12 = load i32, ptr %6, align 4, !tbaa !16
  %13 = icmp slt i32 %11, %12
  br i1 %13, label %14, label %35

14:                                               ; preds = %10
  call void @llvm.lifetime.start.p0(i64 4, ptr %8) #3
  %15 = load ptr, ptr %4, align 8, !tbaa !14
  %16 = load i32, ptr %7, align 4, !tbaa !16
  %17 = sext i32 %16 to i64
  %18 = getelementptr inbounds i32, ptr %15, i64 %17
  %19 = load i32, ptr %18, align 4, !tbaa !16
  store i32 %19, ptr %8, align 4, !tbaa !16
  call void @llvm.lifetime.start.p0(i64 4, ptr %9) #3
  %20 = load ptr, ptr %5, align 8, !tbaa !14
  %21 = load i32, ptr %7, align 4, !tbaa !16
  %22 = sext i32 %21 to i64
  %23 = getelementptr inbounds i32, ptr %20, i64 %22
  %24 = load i32, ptr %23, align 4, !tbaa !16
  store i32 %24, ptr %9, align 4, !tbaa !16
  %25 = load i32, ptr %9, align 4, !tbaa !16
  %26 = load i32, ptr %8, align 4, !tbaa !16
  %27 = sub i32 %25, %26
  %28 = load ptr, ptr %4, align 8, !tbaa !14
  %29 = load i32, ptr %7, align 4, !tbaa !16
  %30 = sext i32 %29 to i64
  %31 = getelementptr inbounds i32, ptr %28, i64 %30
  store i32 %27, ptr %31, align 4, !tbaa !16
  call void @llvm.lifetime.end.p0(i64 4, ptr %9) #3
  call void @llvm.lifetime.end.p0(i64 4, ptr %8) #3
  br label %32

32:                                               ; preds = %14
  %33 = load i32, ptr %7, align 4, !tbaa !16
  %34 = add nsw i32 %33, 1
  store i32 %34, ptr %7, align 4, !tbaa !16
  br label %10, !llvm.loop !20

35:                                               ; preds = %10
  call void @llvm.lifetime.end.p0(i64 4, ptr %7) #3
  ret void
}

; Function Attrs: nounwind uwtable
define internal void @decorrelate_sm(ptr noundef %0, ptr noundef %1, i32 noundef %2) #1 {
  %4 = alloca ptr, align 8
  %5 = alloca ptr, align 8
  %6 = alloca i32, align 4
  %7 = alloca i32, align 4
  %8 = alloca i32, align 4
  %9 = alloca i32, align 4
  store ptr %0, ptr %4, align 8, !tbaa !14
  store ptr %1, ptr %5, align 8, !tbaa !14
  store i32 %2, ptr %6, align 4, !tbaa !16
  call void @llvm.lifetime.start.p0(i64 4, ptr %7) #3
  store i32 0, ptr %7, align 4, !tbaa !16
  br label %10

10:                                               ; preds = %41, %3
  %11 = load i32, ptr %7, align 4, !tbaa !16
  %12 = load i32, ptr %6, align 4, !tbaa !16
  %13 = icmp slt i32 %11, %12
  br i1 %13, label %14, label %44

14:                                               ; preds = %10
  call void @llvm.lifetime.start.p0(i64 4, ptr %8) #3
  %15 = load ptr, ptr %4, align 8, !tbaa !14
  %16 = load i32, ptr %7, align 4, !tbaa !16
  %17 = sext i32 %16 to i64
  %18 = getelementptr inbounds i32, ptr %15, i64 %17
  %19 = load i32, ptr %18, align 4, !tbaa !16
  store i32 %19, ptr %8, align 4, !tbaa !16
  call void @llvm.lifetime.start.p0(i64 4, ptr %9) #3
  %20 = load ptr, ptr %5, align 8, !tbaa !14
  %21 = load i32, ptr %7, align 4, !tbaa !16
  %22 = sext i32 %21 to i64
  %23 = getelementptr inbounds i32, ptr %20, i64 %22
  %24 = load i32, ptr %23, align 4, !tbaa !16
  store i32 %24, ptr %9, align 4, !tbaa !16
  %25 = load i32, ptr %9, align 4, !tbaa !16
  %26 = ashr i32 %25, 1
  %27 = load i32, ptr %8, align 4, !tbaa !16
  %28 = sub i32 %27, %26
  store i32 %28, ptr %8, align 4, !tbaa !16
  %29 = load i32, ptr %8, align 4, !tbaa !16
  %30 = load ptr, ptr %4, align 8, !tbaa !14
  %31 = load i32, ptr %7, align 4, !tbaa !16
  %32 = sext i32 %31 to i64
  %33 = getelementptr inbounds i32, ptr %30, i64 %32
  store i32 %29, ptr %33, align 4, !tbaa !16
  %34 = load i32, ptr %8, align 4, !tbaa !16
  %35 = load i32, ptr %9, align 4, !tbaa !16
  %36 = add i32 %34, %35
  %37 = load ptr, ptr %5, align 8, !tbaa !14
  %38 = load i32, ptr %7, align 4, !tbaa !16
  %39 = sext i32 %38 to i64
  %40 = getelementptr inbounds i32, ptr %37, i64 %39
  store i32 %36, ptr %40, align 4, !tbaa !16
  call void @llvm.lifetime.end.p0(i64 4, ptr %9) #3
  call void @llvm.lifetime.end.p0(i64 4, ptr %8) #3
  br label %41

41:                                               ; preds = %14
  %42 = load i32, ptr %7, align 4, !tbaa !16
  %43 = add nsw i32 %42, 1
  store i32 %43, ptr %7, align 4, !tbaa !16
  br label %10, !llvm.loop !21

44:                                               ; preds = %10
  call void @llvm.lifetime.end.p0(i64 4, ptr %7) #3
  ret void
}

; Function Attrs: nounwind uwtable
define internal void @decorrelate_sf(ptr noundef %0, ptr noundef %1, i32 noundef %2, i32 noundef %3, i32 noundef %4) #1 {
  %6 = alloca ptr, align 8
  %7 = alloca ptr, align 8
  %8 = alloca i32, align 4
  %9 = alloca i32, align 4
  %10 = alloca i32, align 4
  %11 = alloca i32, align 4
  %12 = alloca i32, align 4
  %13 = alloca i32, align 4
  store ptr %0, ptr %6, align 8, !tbaa !14
  store ptr %1, ptr %7, align 8, !tbaa !14
  store i32 %2, ptr %8, align 4, !tbaa !16
  store i32 %3, ptr %9, align 4, !tbaa !16
  store i32 %4, ptr %10, align 4, !tbaa !16
  call void @llvm.lifetime.start.p0(i64 4, ptr %11) #3
  store i32 0, ptr %11, align 4, !tbaa !16
  br label %14

14:                                               ; preds = %45, %5
  %15 = load i32, ptr %11, align 4, !tbaa !16
  %16 = load i32, ptr %8, align 4, !tbaa !16
  %17 = icmp slt i32 %15, %16
  br i1 %17, label %18, label %48

18:                                               ; preds = %14
  call void @llvm.lifetime.start.p0(i64 4, ptr %12) #3
  %19 = load ptr, ptr %6, align 8, !tbaa !14
  %20 = load i32, ptr %11, align 4, !tbaa !16
  %21 = sext i32 %20 to i64
  %22 = getelementptr inbounds i32, ptr %19, i64 %21
  %23 = load i32, ptr %22, align 4, !tbaa !16
  store i32 %23, ptr %12, align 4, !tbaa !16
  call void @llvm.lifetime.start.p0(i64 4, ptr %13) #3
  %24 = load ptr, ptr %7, align 8, !tbaa !14
  %25 = load i32, ptr %11, align 4, !tbaa !16
  %26 = sext i32 %25 to i64
  %27 = getelementptr inbounds i32, ptr %24, i64 %26
  %28 = load i32, ptr %27, align 4, !tbaa !16
  store i32 %28, ptr %13, align 4, !tbaa !16
  %29 = load i32, ptr %10, align 4, !tbaa !16
  %30 = load i32, ptr %13, align 4, !tbaa !16
  %31 = load i32, ptr %9, align 4, !tbaa !16
  %32 = ashr i32 %30, %31
  %33 = mul i32 %29, %32
  %34 = add i32 %33, 128
  %35 = ashr i32 %34, 8
  %36 = load i32, ptr %9, align 4, !tbaa !16
  %37 = shl i32 %35, %36
  store i32 %37, ptr %13, align 4, !tbaa !16
  %38 = load i32, ptr %13, align 4, !tbaa !16
  %39 = load i32, ptr %12, align 4, !tbaa !16
  %40 = sub i32 %38, %39
  %41 = load ptr, ptr %6, align 8, !tbaa !14
  %42 = load i32, ptr %11, align 4, !tbaa !16
  %43 = sext i32 %42 to i64
  %44 = getelementptr inbounds i32, ptr %41, i64 %43
  store i32 %40, ptr %44, align 4, !tbaa !16
  call void @llvm.lifetime.end.p0(i64 4, ptr %13) #3
  call void @llvm.lifetime.end.p0(i64 4, ptr %12) #3
  br label %45

45:                                               ; preds = %18
  %46 = load i32, ptr %11, align 4, !tbaa !16
  %47 = add nsw i32 %46, 1
  store i32 %47, ptr %11, align 4, !tbaa !16
  br label %14, !llvm.loop !22

48:                                               ; preds = %14
  call void @llvm.lifetime.end.p0(i64 4, ptr %11) #3
  ret void
}

; Function Attrs: nocallback nofree nosync nounwind willreturn memory(argmem: readwrite)
declare void @llvm.lifetime.start.p0(i64 immarg, ptr captures(none)) #2

; Function Attrs: nocallback nofree nosync nounwind willreturn memory(argmem: readwrite)
declare void @llvm.lifetime.end.p0(i64 immarg, ptr captures(none)) #2


!llvm.module.flags = !{!0, !1, !2, !3}

!0 = !{i32 1, !"wchar_size", i32 4}
!1 = !{i32 8, !"PIC Level", i32 2}
!2 = !{i32 7, !"uwtable", i32 2}
!3 = !{i32 1, !"override-stack-alignment", i32 16}
!4 = !{!5, !5, i64 0}
!5 = !{!"p1 _ZTS13TAKDSPContext", !6, i64 0}
!6 = !{!"any pointer", !7, i64 0}
!7 = !{!"omnipotent char", !8, i64 0}
!8 = !{!"Simple C/C++ TBAA"}
!9 = !{!10, !6, i64 0}
!10 = !{!"TAKDSPContext", !6, i64 0, !6, i64 8, !6, i64 16, !6, i64 24}
!11 = !{!10, !6, i64 8}
!12 = !{!10, !6, i64 16}
!13 = !{!10, !6, i64 24}
!14 = !{!15, !15, i64 0}
!15 = !{!"p1 int", !6, i64 0}
!16 = !{!17, !17, i64 0}
!17 = !{!"int", !7, i64 0}
!18 = distinct !{!18, !19}
!19 = !{!"llvm.loop.mustprogress"}
!20 = distinct !{!20, !19}
!21 = distinct !{!21, !19}
!22 = distinct !{!22, !19}
