; ModuleID = 'bench/ffmpeg/original/takdsp.ll'
source_filename = "bench/ffmpeg/original/takdsp.ll"
target datalayout = "e-m:e-p270:32:32-p271:32:32-p272:64:64-i64:64-i128:128-f80:128-n8:16:32:64-S128"
target triple = "x86_64-pc-linux-gnu"

; Function Attrs: cold mustprogress nofree norecurse nosync nounwind optsize willreturn memory(argmem: write) uwtable
define void @ff_takdsp_init(ptr noundef writeonly captures(none) initializes((0, 32)) %0) local_unnamed_addr #0 {
  store ptr @decorrelate_ls, ptr %0, align 8, !tbaa !4
  %2 = getelementptr inbounds nuw i8, ptr %0, i64 8
  store ptr @decorrelate_sr, ptr %2, align 8, !tbaa !9
  %3 = getelementptr inbounds nuw i8, ptr %0, i64 16
  store ptr @decorrelate_sm, ptr %3, align 8, !tbaa !10
  %4 = getelementptr inbounds nuw i8, ptr %0, i64 24
  store ptr @decorrelate_sf, ptr %4, align 8, !tbaa !11
  ret void
}

; Function Attrs: nofree norecurse nosync nounwind memory(argmem: readwrite) uwtable
define internal void @decorrelate_ls(ptr noundef readonly captures(none) %0, ptr noundef captures(none) %1, i32 noundef %2) #1 {
  %4 = icmp sgt i32 %2, 0
  br i1 %4, label %.lr.ph.preheader, label %._crit_edge

.lr.ph.preheader:                                 ; preds = %3
  %wide.trip.count = zext nneg i32 %2 to i64
  br label %.lr.ph

.lr.ph:                                           ; preds = %.lr.ph.preheader, %.lr.ph
  %indvars.iv = phi i64 [ 0, %.lr.ph.preheader ], [ %indvars.iv.next, %.lr.ph ]
  %5 = getelementptr inbounds nuw i32, ptr %0, i64 %indvars.iv
  %6 = load i32, ptr %5, align 4, !tbaa !12
  %7 = getelementptr inbounds nuw i32, ptr %1, i64 %indvars.iv
  %8 = load i32, ptr %7, align 4, !tbaa !12
  %9 = add i32 %8, %6
  store i32 %9, ptr %7, align 4, !tbaa !12
  %indvars.iv.next = add nuw nsw i64 %indvars.iv, 1
  %exitcond.not = icmp eq i64 %indvars.iv.next, %wide.trip.count
  br i1 %exitcond.not, label %._crit_edge, label %.lr.ph, !llvm.loop !14

._crit_edge:                                      ; preds = %.lr.ph, %3
  ret void
}

; Function Attrs: nofree norecurse nosync nounwind memory(argmem: readwrite) uwtable
define internal void @decorrelate_sr(ptr noundef captures(none) %0, ptr noundef readonly captures(none) %1, i32 noundef %2) #1 {
  %4 = icmp sgt i32 %2, 0
  br i1 %4, label %.lr.ph.preheader, label %._crit_edge

.lr.ph.preheader:                                 ; preds = %3
  %wide.trip.count = zext nneg i32 %2 to i64
  br label %.lr.ph

.lr.ph:                                           ; preds = %.lr.ph.preheader, %.lr.ph
  %indvars.iv = phi i64 [ 0, %.lr.ph.preheader ], [ %indvars.iv.next, %.lr.ph ]
  %5 = getelementptr inbounds nuw i32, ptr %0, i64 %indvars.iv
  %6 = load i32, ptr %5, align 4, !tbaa !12
  %7 = getelementptr inbounds nuw i32, ptr %1, i64 %indvars.iv
  %8 = load i32, ptr %7, align 4, !tbaa !12
  %9 = sub i32 %8, %6
  store i32 %9, ptr %5, align 4, !tbaa !12
  %indvars.iv.next = add nuw nsw i64 %indvars.iv, 1
  %exitcond.not = icmp eq i64 %indvars.iv.next, %wide.trip.count
  br i1 %exitcond.not, label %._crit_edge, label %.lr.ph, !llvm.loop !16

._crit_edge:                                      ; preds = %.lr.ph, %3
  ret void
}

; Function Attrs: nofree norecurse nosync nounwind memory(argmem: readwrite) uwtable
define internal void @decorrelate_sm(ptr noundef captures(none) %0, ptr noundef captures(none) %1, i32 noundef %2) #1 {
  %4 = icmp sgt i32 %2, 0
  br i1 %4, label %.lr.ph.preheader, label %._crit_edge

.lr.ph.preheader:                                 ; preds = %3
  %wide.trip.count = zext nneg i32 %2 to i64
  br label %.lr.ph

.lr.ph:                                           ; preds = %.lr.ph.preheader, %.lr.ph
  %indvars.iv = phi i64 [ 0, %.lr.ph.preheader ], [ %indvars.iv.next, %.lr.ph ]
  %5 = getelementptr inbounds nuw i32, ptr %0, i64 %indvars.iv
  %6 = load i32, ptr %5, align 4, !tbaa !12
  %7 = getelementptr inbounds nuw i32, ptr %1, i64 %indvars.iv
  %8 = load i32, ptr %7, align 4, !tbaa !12
  %9 = ashr i32 %8, 1
  %10 = sub i32 %6, %9
  store i32 %10, ptr %5, align 4, !tbaa !12
  %11 = add i32 %10, %8
  store i32 %11, ptr %7, align 4, !tbaa !12
  %indvars.iv.next = add nuw nsw i64 %indvars.iv, 1
  %exitcond.not = icmp eq i64 %indvars.iv.next, %wide.trip.count
  br i1 %exitcond.not, label %._crit_edge, label %.lr.ph, !llvm.loop !17

._crit_edge:                                      ; preds = %.lr.ph, %3
  ret void
}

; Function Attrs: nofree norecurse nosync nounwind memory(argmem: readwrite) uwtable
define internal void @decorrelate_sf(ptr noundef captures(none) %0, ptr noundef readonly captures(none) %1, i32 noundef %2, i32 noundef %3, i32 noundef %4) #1 {
  %6 = icmp sgt i32 %2, 0
  br i1 %6, label %.lr.ph.preheader, label %._crit_edge

.lr.ph.preheader:                                 ; preds = %5
  %wide.trip.count = zext nneg i32 %2 to i64
  br label %.lr.ph

.lr.ph:                                           ; preds = %.lr.ph.preheader, %.lr.ph
  %indvars.iv = phi i64 [ 0, %.lr.ph.preheader ], [ %indvars.iv.next, %.lr.ph ]
  %7 = getelementptr inbounds nuw i32, ptr %0, i64 %indvars.iv
  %8 = load i32, ptr %7, align 4, !tbaa !12
  %9 = getelementptr inbounds nuw i32, ptr %1, i64 %indvars.iv
  %10 = load i32, ptr %9, align 4, !tbaa !12
  %11 = ashr i32 %10, %3
  %12 = mul i32 %11, %4
  %13 = add i32 %12, 128
  %14 = ashr i32 %13, 8
  %15 = shl i32 %14, %3
  %16 = sub i32 %15, %8
  store i32 %16, ptr %7, align 4, !tbaa !12
  %indvars.iv.next = add nuw nsw i64 %indvars.iv, 1
  %exitcond.not = icmp eq i64 %indvars.iv.next, %wide.trip.count
  br i1 %exitcond.not, label %._crit_edge, label %.lr.ph, !llvm.loop !18

._crit_edge:                                      ; preds = %.lr.ph, %5
  ret void
}


!llvm.module.flags = !{!0, !1, !2, !3}

!0 = !{i32 1, !"wchar_size", i32 4}
!1 = !{i32 8, !"PIC Level", i32 2}
!2 = !{i32 7, !"uwtable", i32 2}
!3 = !{i32 1, !"override-stack-alignment", i32 16}
!4 = !{!5, !6, i64 0}
!5 = !{!"TAKDSPContext", !6, i64 0, !6, i64 8, !6, i64 16, !6, i64 24}
!6 = !{!"any pointer", !7, i64 0}
!7 = !{!"omnipotent char", !8, i64 0}
!8 = !{!"Simple C/C++ TBAA"}
!9 = !{!5, !6, i64 8}
!10 = !{!5, !6, i64 16}
!11 = !{!5, !6, i64 24}
!12 = !{!13, !13, i64 0}
!13 = !{!"int", !7, i64 0}
!14 = distinct !{!14, !15}
!15 = !{!"llvm.loop.mustprogress"}
!16 = distinct !{!16, !15}
!17 = distinct !{!17, !15}
!18 = distinct !{!18, !15}
